target datalayout = "e-m:e-p270:32:32-p271:32:32-p272:64:64-i64:64-i128:128-f80:128-n8:16:32:64-S128"
target triple = "x86_64-pc-linux-gnu"

%class.ExtArgMultiSelect = type { %class.ExtcapArgument, ptr, ptr }
%class.ExtcapArgument = type { %class.QObject, %class.QList, ptr, ptr, i32, %class.QString }
%class.QObject = type { ptr, %class.QScopedPointer }
%class.QScopedPointer = type { ptr }
%class.QList = type { %struct.QArrayDataPointer }
%struct.QArrayDataPointer = type { ptr, ptr, i64 }
%class.QString = type { %struct.QArrayDataPointer.0 }
%struct.QArrayDataPointer.0 = type { ptr, ptr, i64 }

@_ZTV17ExtArgMultiSelect = external unnamed_addr constant { [27 x ptr] }, align 8

; Function Attrs: mustprogress nounwind uwtable
define void @_ZN17ExtArgMultiSelectD2Ev(ptr noundef nonnull align 8 dereferenceable(104) %0) unnamed_addr #2 align 2 {
  %2 = alloca ptr, align 8
  store ptr %0, ptr %2, align 8
  %3 = load ptr, ptr %2, align 8
  store ptr getelementptr inbounds ({ [27 x ptr] }, ptr @_ZTV17ExtArgMultiSelect, i32 0, i32 0, i32 2), ptr %3, align 8
  %4 = getelementptr inbounds %class.ExtArgMultiSelect, ptr %3, i32 0, i32 1
  %5 = load ptr, ptr %4, align 8
  %6 = icmp ne ptr %5, null
  br i1 %6, label %7, label %16

7:                                                ; preds = %1
  %8 = getelementptr inbounds %class.ExtArgMultiSelect, ptr %3, i32 0, i32 1
  %9 = load ptr, ptr %8, align 8
  %10 = icmp eq ptr %9, null
  br i1 %10, label %15, label %11

11:                                               ; preds = %7
  %12 = load ptr, ptr %9, align 8
  %13 = getelementptr inbounds ptr, ptr %12, i64 4
  %14 = load ptr, ptr %13, align 8
  call void %14(ptr noundef nonnull align 8 dereferenceable(40) %9) #11
  br label %15

15:                                               ; preds = %11, %7
  br label %16

16:                                               ; preds = %15, %1
  %17 = getelementptr inbounds %class.ExtArgMultiSelect, ptr %3, i32 0, i32 2
  %18 = load ptr, ptr %17, align 8
  %19 = icmp ne ptr %18, null
  br i1 %19, label %20, label %29

20:                                               ; preds = %16
  %21 = getelementptr inbounds %class.ExtArgMultiSelect, ptr %3, i32 0, i32 2
  %22 = load ptr, ptr %21, align 8
  %23 = icmp eq ptr %22, null
  br i1 %23, label %28, label %24

24:                                               ; preds = %20
  %25 = load ptr, ptr %22, align 8
  %26 = getelementptr inbounds ptr, ptr %25, i64 4
  %27 = load ptr, ptr %26, align 8
  call void %27(ptr noundef nonnull align 8 dereferenceable(16) %22) #11
  br label %28

28:                                               ; preds = %24, %20
  br label %29

29:                                               ; preds = %28, %16
  call void @_ZN14ExtcapArgumentD2Ev(ptr noundef nonnull align 8 dereferenceable(88) %3) #11
  ret void
}