; Function Attrs: mustprogress nounwind uwtable
define void @_ZN17ExtArgMultiSelectD2Ev(ptr noundef nonnull align 8 dereferenceable(104) %0) unnamed_addr #2 align 2 {
  store ptr getelementptr inbounds ({ [27 x ptr] }, ptr @_ZTV17ExtArgMultiSelect, i64 0, i32 0, i64 2), ptr %0, align 8
  %2 = getelementptr inbounds i8, ptr %0, i64 88
  %3 = load ptr, ptr %2, align 8
  %.not = icmp eq ptr %3, null
  br i1 %.not, label %8, label %4

4:                                                ; preds = %1
  %5 = load ptr, ptr %3, align 8
  %6 = getelementptr inbounds i8, ptr %5, i64 32
  %7 = load ptr, ptr %6, align 8
  tail call void %7(ptr noundef nonnull align 8 dereferenceable(40) %3) #16
  br label %8

8:                                                ; preds = %4, %1
  %9 = getelementptr inbounds i8, ptr %0, i64 96
  %10 = load ptr, ptr %9, align 8
  %.not2 = icmp eq ptr %10, null
  br i1 %.not2, label %15, label %11

11:                                               ; preds = %8
  %12 = load ptr, ptr %10, align 8
  %13 = getelementptr inbounds i8, ptr %12, i64 32
  %14 = load ptr, ptr %13, align 8
  tail call void %14(ptr noundef nonnull align 8 dereferenceable(16) %10) #16
  br label %15

15:                                               ; preds = %11, %8
  tail call void @_ZN14ExtcapArgumentD2Ev(ptr noundef nonnull align 8 dereferenceable(88) %0) #16
  ret void
}